#include <math.h>
#include <stdio.h>
#include <stdlib.h>
#include <string.h>

void main()
{
	int n, i, j, k, number[1000], flag=0;
	scanf("%d%d", &n, &k);
	for(i=0;i<n;i++){
		scanf("%d", &number[i]);
	}
	for(i=0;i<n;i++){
		for(j=0;j<n;j++){
			if(i != j){
				if(number[i]+number[j] == k)
					flag++;
			}
			else
				continue;
		}
	}
	if(flag != 0)
		printf("yes");
	else
		printf("no");
}