; ModuleID = '3/186.c'
source_filename = "3/186.c"
target datalayout = "e-m:e-p270:32:32-p271:32:32-p272:64:64-i64:64-f80:128-n8:16:32:64-S128"
target triple = "x86_64-pc-linux-gnu"

@.str = private unnamed_addr constant [5 x i8] c"%d%d\00", align 1
@.str.1 = private unnamed_addr constant [3 x i8] c"%d\00", align 1
@.str.2 = private unnamed_addr constant [4 x i8] c"yes\00", align 1
@.str.3 = private unnamed_addr constant [3 x i8] c"no\00", align 1

; Function Attrs: noinline nounwind uwtable
define dso_local void @main() #0 {
  %1 = alloca i32, align 4
  %2 = alloca i32, align 4
  %3 = alloca i32, align 4
  %4 = alloca i32, align 4
  %5 = alloca [1000 x i32], align 16
  %6 = alloca i32, align 4
  store i32 0, i32* %6, align 4
  %7 = call i32 (i8*, ...) @__isoc99_scanf(i8* getelementptr inbounds ([5 x i8], [5 x i8]* @.str, i64 0, i64 0), i32* %1, i32* %4)
  store i32 0, i32* %2, align 4
  br label %8

8:                                                ; preds = %17, %0
  %9 = load i32, i32* %2, align 4
  %10 = load i32, i32* %1, align 4
  %11 = icmp slt i32 %9, %10
  br i1 %11, label %12, label %20

12:                                               ; preds = %8
  %13 = load i32, i32* %2, align 4
  %14 = sext i32 %13 to i64
  %15 = getelementptr inbounds [1000 x i32], [1000 x i32]* %5, i64 0, i64 %14
  %16 = call i32 (i8*, ...) @__isoc99_scanf(i8* getelementptr inbounds ([3 x i8], [3 x i8]* @.str.1, i64 0, i64 0), i32* %15)
  br label %17

17:                                               ; preds = %12
  %18 = load i32, i32* %2, align 4
  %19 = add nsw i32 %18, 1
  store i32 %19, i32* %2, align 4
  br label %8

20:                                               ; preds = %8
  store i32 0, i32* %2, align 4
  br label %21

21:                                               ; preds = %56, %20
  %22 = load i32, i32* %2, align 4
  %23 = load i32, i32* %1, align 4
  %24 = icmp slt i32 %22, %23
  br i1 %24, label %25, label %59

25:                                               ; preds = %21
  store i32 0, i32* %3, align 4
  br label %26

26:                                               ; preds = %52, %25
  %27 = load i32, i32* %3, align 4
  %28 = load i32, i32* %1, align 4
  %29 = icmp slt i32 %27, %28
  br i1 %29, label %30, label %55

30:                                               ; preds = %26
  %31 = load i32, i32* %2, align 4
  %32 = load i32, i32* %3, align 4
  %33 = icmp ne i32 %31, %32
  br i1 %33, label %34, label %50

34:                                               ; preds = %30
  %35 = load i32, i32* %2, align 4
  %36 = sext i32 %35 to i64
  %37 = getelementptr inbounds [1000 x i32], [1000 x i32]* %5, i64 0, i64 %36
  %38 = load i32, i32* %37, align 4
  %39 = load i32, i32* %3, align 4
  %40 = sext i32 %39 to i64
  %41 = getelementptr inbounds [1000 x i32], [1000 x i32]* %5, i64 0, i64 %40
  %42 = load i32, i32* %41, align 4
  %43 = add nsw i32 %38, %42
  %44 = load i32, i32* %4, align 4
  %45 = icmp eq i32 %43, %44
  br i1 %45, label %46, label %49

46:                                               ; preds = %34
  %47 = load i32, i32* %6, align 4
  %48 = add nsw i32 %47, 1
  store i32 %48, i32* %6, align 4
  br label %49

49:                                               ; preds = %46, %34
  br label %51

50:                                               ; preds = %30
  br label %52

51:                                               ; preds = %49
  br label %52

52:                                               ; preds = %51, %50
  %53 = load i32, i32* %3, align 4
  %54 = add nsw i32 %53, 1
  store i32 %54, i32* %3, align 4
  br label %26

55:                                               ; preds = %26
  br label %56

56:                                               ; preds = %55
  %57 = load i32, i32* %2, align 4
  %58 = add nsw i32 %57, 1
  store i32 %58, i32* %2, align 4
  br label %21

59:                                               ; preds = %21
  %60 = load i32, i32* %6, align 4
  %61 = icmp ne i32 %60, 0
  br i1 %61, label %62, label %64

62:                                               ; preds = %59
  %63 = call i32 (i8*, ...) @printf(i8* getelementptr inbounds ([4 x i8], [4 x i8]* @.str.2, i64 0, i64 0))
  br label %66

64:                                               ; preds = %59
  %65 = call i32 (i8*, ...) @printf(i8* getelementptr inbounds ([3 x i8], [3 x i8]* @.str.3, i64 0, i64 0))
  br label %66

66:                                               ; preds = %64, %62
  ret void
}

declare dso_local i32 @__isoc99_scanf(i8*, ...) #1

declare dso_local i32 @printf(i8*, ...) #1


!llvm.module.flags = !{!0}
!llvm.ident = !{!1}

!0 = !{i32 1, !"wchar_size", i32 4}
!1 = !{!"clang version 10.0.0-4ubuntu1 "}
